; ModuleID = 'source-C-CXX/5/3180.c'
source_filename = "source-C-CXX/5/3180.c"
target datalayout = "e-m:e-p270:32:32-p271:32:32-p272:64:64-i64:64-f80:128-n8:16:32:64-S128"
target triple = "x86_64-pc-linux-gnu"

@.str = private unnamed_addr constant [3 x i8] c"%d\00", align 1
@.str.1 = private unnamed_addr constant [4 x i8] c"%d\0A\00", align 1
@.str.2 = private unnamed_addr constant [5 x i8] c"%d%d\00", align 1
@.str.3 = private unnamed_addr constant [4 x i8] c" %d\00", align 1

; Function Attrs: nofree nounwind sspstrong uwtable
define dso_local void @main() local_unnamed_addr #0 {
  %1 = alloca i32, align 4
  %2 = bitcast i32* %1 to i8*
  call void @llvm.lifetime.start.p0i8(i64 4, i8* nonnull %2) #4
  %3 = call i32 (i8*, ...) @__isoc99_scanf(i8* getelementptr inbounds ([3 x i8], [3 x i8]* @.str, i64 0, i64 0), i32* nonnull %1)
  %4 = load i32, i32* %1, align 4, !tbaa !5
  %5 = icmp sgt i32 %4, 0
  br i1 %5, label %6, label %13

6:                                                ; preds = %0, %6
  %7 = phi i32 [ %10, %6 ], [ 0, %0 ]
  %8 = call i32 @fy()
  %9 = call i32 (i8*, ...) @printf(i8* nonnull dereferenceable(1) getelementptr inbounds ([4 x i8], [4 x i8]* @.str.1, i64 0, i64 0), i32 %8)
  %10 = add nuw nsw i32 %7, 1
  %11 = load i32, i32* %1, align 4, !tbaa !5
  %12 = icmp slt i32 %10, %11
  br i1 %12, label %6, label %13, !llvm.loop !9

13:                                               ; preds = %6, %0
  call void @llvm.lifetime.end.p0i8(i64 4, i8* nonnull %2) #4
  ret void
}

; Function Attrs: argmemonly mustprogress nofree nosync nounwind willreturn
declare void @llvm.lifetime.start.p0i8(i64 immarg, i8* nocapture) #1

; Function Attrs: nofree nounwind
declare noundef i32 @__isoc99_scanf(i8* nocapture noundef readonly, ...) local_unnamed_addr #2

; Function Attrs: nofree nounwind
declare noundef i32 @printf(i8* nocapture noundef readonly, ...) local_unnamed_addr #2

; Function Attrs: argmemonly mustprogress nofree nosync nounwind willreturn
declare void @llvm.lifetime.end.p0i8(i64 immarg, i8* nocapture) #1

; Function Attrs: nofree nounwind sspstrong uwtable
define dso_local i32 @fy() local_unnamed_addr #0 {
  %1 = alloca [100 x [100 x i32]], align 16
  %2 = alloca i32, align 4
  %3 = alloca i32, align 4
  %4 = bitcast [100 x [100 x i32]]* %1 to i8*
  call void @llvm.lifetime.start.p0i8(i64 40000, i8* nonnull %4) #4
  %5 = bitcast i32* %2 to i8*
  call void @llvm.lifetime.start.p0i8(i64 4, i8* nonnull %5) #4
  %6 = bitcast i32* %3 to i8*
  call void @llvm.lifetime.start.p0i8(i64 4, i8* nonnull %6) #4
  %7 = call i32 (i8*, ...) @__isoc99_scanf(i8* getelementptr inbounds ([5 x i8], [5 x i8]* @.str.2, i64 0, i64 0), i32* nonnull %2, i32* nonnull %3)
  %8 = load i32, i32* %2, align 4, !tbaa !5
  %9 = icmp sgt i32 %8, 0
  br i1 %9, label %112, label %10

10:                                               ; preds = %0
  %11 = load i32, i32* %3, align 4, !tbaa !5
  br label %12

12:                                               ; preds = %129, %10
  %13 = phi i32 [ %11, %10 ], [ %130, %129 ]
  %14 = phi i32 [ 0, %10 ], [ %135, %129 ]
  %15 = phi i32 [ %8, %10 ], [ %137, %129 ]
  %16 = add nsw i32 %15, -1
  %17 = sext i32 %16 to i64
  %18 = icmp sgt i32 %13, 2
  br i1 %18, label %19, label %151

19:                                               ; preds = %12
  %20 = add nsw i32 %13, -1
  %21 = zext i32 %20 to i64
  %22 = add nsw i64 %21, -1
  %23 = icmp ult i64 %22, 8
  br i1 %23, label %109, label %24

24:                                               ; preds = %19
  %25 = and i64 %22, -8
  %26 = or i64 %25, 1
  %27 = insertelement <4 x i32> <i32 poison, i32 0, i32 0, i32 0>, i32 %14, i32 0
  %28 = add nsw i64 %25, -8
  %29 = lshr exact i64 %28, 3
  %30 = add nuw nsw i64 %29, 1
  %31 = and i64 %30, 1
  %32 = icmp eq i64 %28, 0
  br i1 %32, label %79, label %33

33:                                               ; preds = %24
  %34 = and i64 %30, 4611686018427387902
  br label %35

35:                                               ; preds = %35, %33
  %36 = phi i64 [ 0, %33 ], [ %74, %35 ]
  %37 = phi <4 x i32> [ %27, %33 ], [ %72, %35 ]
  %38 = phi <4 x i32> [ zeroinitializer, %33 ], [ %73, %35 ]
  %39 = phi i64 [ %34, %33 ], [ %75, %35 ]
  %40 = or i64 %36, 1
  %41 = getelementptr inbounds [100 x [100 x i32]], [100 x [100 x i32]]* %1, i64 0, i64 0, i64 %40
  %42 = bitcast i32* %41 to <4 x i32>*
  %43 = load <4 x i32>, <4 x i32>* %42, align 4, !tbaa !5
  %44 = getelementptr inbounds i32, i32* %41, i64 4
  %45 = bitcast i32* %44 to <4 x i32>*
  %46 = load <4 x i32>, <4 x i32>* %45, align 4, !tbaa !5
  %47 = add <4 x i32> %43, %37
  %48 = add <4 x i32> %46, %38
  %49 = getelementptr inbounds [100 x [100 x i32]], [100 x [100 x i32]]* %1, i64 0, i64 %17, i64 %40
  %50 = bitcast i32* %49 to <4 x i32>*
  %51 = load <4 x i32>, <4 x i32>* %50, align 4, !tbaa !5
  %52 = getelementptr inbounds i32, i32* %49, i64 4
  %53 = bitcast i32* %52 to <4 x i32>*
  %54 = load <4 x i32>, <4 x i32>* %53, align 4, !tbaa !5
  %55 = add <4 x i32> %47, %51
  %56 = add <4 x i32> %48, %54
  %57 = or i64 %36, 9
  %58 = getelementptr inbounds [100 x [100 x i32]], [100 x [100 x i32]]* %1, i64 0, i64 0, i64 %57
  %59 = bitcast i32* %58 to <4 x i32>*
  %60 = load <4 x i32>, <4 x i32>* %59, align 4, !tbaa !5
  %61 = getelementptr inbounds i32, i32* %58, i64 4
  %62 = bitcast i32* %61 to <4 x i32>*
  %63 = load <4 x i32>, <4 x i32>* %62, align 4, !tbaa !5
  %64 = add <4 x i32> %60, %55
  %65 = add <4 x i32> %63, %56
  %66 = getelementptr inbounds [100 x [100 x i32]], [100 x [100 x i32]]* %1, i64 0, i64 %17, i64 %57
  %67 = bitcast i32* %66 to <4 x i32>*
  %68 = load <4 x i32>, <4 x i32>* %67, align 4, !tbaa !5
  %69 = getelementptr inbounds i32, i32* %66, i64 4
  %70 = bitcast i32* %69 to <4 x i32>*
  %71 = load <4 x i32>, <4 x i32>* %70, align 4, !tbaa !5
  %72 = add <4 x i32> %64, %68
  %73 = add <4 x i32> %65, %71
  %74 = add nuw i64 %36, 16
  %75 = add i64 %39, -2
  %76 = icmp eq i64 %75, 0
  br i1 %76, label %77, label %35, !llvm.loop !11

77:                                               ; preds = %35
  %78 = or i64 %74, 1
  br label %79

79:                                               ; preds = %77, %24
  %80 = phi <4 x i32> [ undef, %24 ], [ %72, %77 ]
  %81 = phi <4 x i32> [ undef, %24 ], [ %73, %77 ]
  %82 = phi i64 [ 1, %24 ], [ %78, %77 ]
  %83 = phi <4 x i32> [ %27, %24 ], [ %72, %77 ]
  %84 = phi <4 x i32> [ zeroinitializer, %24 ], [ %73, %77 ]
  %85 = icmp eq i64 %31, 0
  br i1 %85, label %103, label %86

86:                                               ; preds = %79
  %87 = getelementptr inbounds [100 x [100 x i32]], [100 x [100 x i32]]* %1, i64 0, i64 0, i64 %82
  %88 = getelementptr inbounds [100 x [100 x i32]], [100 x [100 x i32]]* %1, i64 0, i64 %17, i64 %82
  %89 = getelementptr inbounds i32, i32* %87, i64 4
  %90 = bitcast i32* %89 to <4 x i32>*
  %91 = load <4 x i32>, <4 x i32>* %90, align 4, !tbaa !5
  %92 = add <4 x i32> %91, %84
  %93 = getelementptr inbounds i32, i32* %88, i64 4
  %94 = bitcast i32* %93 to <4 x i32>*
  %95 = load <4 x i32>, <4 x i32>* %94, align 4, !tbaa !5
  %96 = add <4 x i32> %92, %95
  %97 = bitcast i32* %87 to <4 x i32>*
  %98 = load <4 x i32>, <4 x i32>* %97, align 4, !tbaa !5
  %99 = add <4 x i32> %98, %83
  %100 = bitcast i32* %88 to <4 x i32>*
  %101 = load <4 x i32>, <4 x i32>* %100, align 4, !tbaa !5
  %102 = add <4 x i32> %99, %101
  br label %103

103:                                              ; preds = %79, %86
  %104 = phi <4 x i32> [ %80, %79 ], [ %102, %86 ]
  %105 = phi <4 x i32> [ %81, %79 ], [ %96, %86 ]
  %106 = add <4 x i32> %105, %104
  %107 = call i32 @llvm.vector.reduce.add.v4i32(<4 x i32> %106)
  %108 = icmp eq i64 %22, %25
  br i1 %108, label %151, label %109

109:                                              ; preds = %19, %103
  %110 = phi i64 [ 1, %19 ], [ %26, %103 ]
  %111 = phi i32 [ %14, %19 ], [ %107, %103 ]
  br label %140

112:                                              ; preds = %0, %129
  %113 = phi i64 [ %136, %129 ], [ 0, %0 ]
  %114 = phi i32 [ %135, %129 ], [ 0, %0 ]
  %115 = getelementptr inbounds [100 x [100 x i32]], [100 x [100 x i32]]* %1, i64 0, i64 %113, i64 0
  %116 = call i32 (i8*, ...) @__isoc99_scanf(i8* getelementptr inbounds ([3 x i8], [3 x i8]* @.str, i64 0, i64 0), i32* nonnull %115)
  %117 = load i32, i32* %115, align 16, !tbaa !5
  %118 = add nsw i32 %117, %114
  %119 = load i32, i32* %3, align 4, !tbaa !5
  %120 = icmp sgt i32 %119, 1
  br i1 %120, label %121, label %129

121:                                              ; preds = %112, %121
  %122 = phi i64 [ %125, %121 ], [ 1, %112 ]
  %123 = getelementptr inbounds [100 x [100 x i32]], [100 x [100 x i32]]* %1, i64 0, i64 %113, i64 %122
  %124 = call i32 (i8*, ...) @__isoc99_scanf(i8* getelementptr inbounds ([4 x i8], [4 x i8]* @.str.3, i64 0, i64 0), i32* nonnull %123)
  %125 = add nuw nsw i64 %122, 1
  %126 = load i32, i32* %3, align 4, !tbaa !5
  %127 = sext i32 %126 to i64
  %128 = icmp slt i64 %125, %127
  br i1 %128, label %121, label %129, !llvm.loop !13

129:                                              ; preds = %121, %112
  %130 = phi i32 [ %119, %112 ], [ %126, %121 ]
  %131 = sext i32 %130 to i64
  %132 = getelementptr inbounds [100 x [100 x i32]], [100 x [100 x i32]]* %1, i64 0, i64 %113, i64 %131
  %133 = getelementptr inbounds i32, i32* %132, i64 -1
  %134 = load i32, i32* %133, align 4, !tbaa !5
  %135 = add nsw i32 %118, %134
  %136 = add nuw nsw i64 %113, 1
  %137 = load i32, i32* %2, align 4, !tbaa !5
  %138 = sext i32 %137 to i64
  %139 = icmp slt i64 %136, %138
  br i1 %139, label %112, label %12, !llvm.loop !14

140:                                              ; preds = %109, %140
  %141 = phi i64 [ %149, %140 ], [ %110, %109 ]
  %142 = phi i32 [ %148, %140 ], [ %111, %109 ]
  %143 = getelementptr inbounds [100 x [100 x i32]], [100 x [100 x i32]]* %1, i64 0, i64 0, i64 %141
  %144 = load i32, i32* %143, align 4, !tbaa !5
  %145 = add nsw i32 %144, %142
  %146 = getelementptr inbounds [100 x [100 x i32]], [100 x [100 x i32]]* %1, i64 0, i64 %17, i64 %141
  %147 = load i32, i32* %146, align 4, !tbaa !5
  %148 = add nsw i32 %145, %147
  %149 = add nuw nsw i64 %141, 1
  %150 = icmp eq i64 %149, %21
  br i1 %150, label %151, label %140, !llvm.loop !15

151:                                              ; preds = %140, %103, %12
  %152 = phi i32 [ %14, %12 ], [ %107, %103 ], [ %148, %140 ]
  call void @llvm.lifetime.end.p0i8(i64 4, i8* nonnull %6) #4
  call void @llvm.lifetime.end.p0i8(i64 4, i8* nonnull %5) #4
  call void @llvm.lifetime.end.p0i8(i64 40000, i8* nonnull %4) #4
  ret i32 %152
}

; Function Attrs: nofree nosync nounwind readnone willreturn
declare i32 @llvm.vector.reduce.add.v4i32(<4 x i32>) #3


!llvm.module.flags = !{!0, !1, !2, !3}
!llvm.ident = !{!4}

!0 = !{i32 1, !"wchar_size", i32 4}
!1 = !{i32 7, !"PIC Level", i32 2}
!2 = !{i32 7, !"PIE Level", i32 2}
!3 = !{i32 7, !"uwtable", i32 1}
!4 = !{!"clang version 13.0.0"}
!5 = !{!6, !6, i64 0}
!6 = !{!"int", !7, i64 0}
!7 = !{!"omnipotent char", !8, i64 0}
!8 = !{!"Simple C/C++ TBAA"}
!9 = distinct !{!9, !10}
!10 = !{!"llvm.loop.mustprogress"}
!11 = distinct !{!11, !10, !12}
!12 = !{!"llvm.loop.isvectorized", i32 1}
!13 = distinct !{!13, !10}
!14 = distinct !{!14, !10}
!15 = distinct !{!15, !10, !16, !12}
!16 = !{!"llvm.loop.unroll.runtime.disable"}
